	.file	"ex1-mutex.c"
	.text
.Ltext0:
	.cfi_sections	.debug_frame
	.comm	lock, 8, 3
	.section .rdata,"dr"
	.align 8
.LC0:
	.ascii "About to increase variable %d times\12\0"
.LC1:
	.ascii "Done increasing variable.\12\0"
	.text
	.globl	increase_fn
	.def	increase_fn;	.scl	2;	.type	32;	.endef
	.seh_proc	increase_fn
increase_fn:
.LFB17:
	.file 1 "ex1-mutex.c"
	.loc 1 42 1
	.cfi_startproc
	pushq	%rbp
	.seh_pushreg	%rbp
	.cfi_def_cfa_offset 16
	.cfi_offset 6, -16
	movq	%rsp, %rbp
	.seh_setframe	%rbp, 0
	.cfi_def_cfa_register 6
	subq	$48, %rsp
	.seh_stackalloc	48
	.seh_endprologue
	movq	%rcx, 16(%rbp)
	.loc 1 44 23
	movq	16(%rbp), %rax
	movq	%rax, -16(%rbp)
	.loc 1 46 9
	movl	$2, %ecx
	movq	__imp___acrt_iob_func(%rip), %rax
	call	*%rax
.LVL0:
	movl	$10000000, %r8d
	leaq	.LC0(%rip), %rdx
	movq	%rax, %rcx
	call	fprintf
	.loc 1 47 16
	movl	$0, -4(%rbp)
	.loc 1 47 9
	jmp	.L2
.L3:
	.loc 1 55 25
	leaq	lock(%rip), %rax
	movq	%rax, %rcx
	call	pthread_mutex_lock
	.loc 1 57 28
	movq	-16(%rbp), %rax
	movl	(%rax), %eax
	.loc 1 57 25
	leal	1(%rax), %edx
	movq	-16(%rbp), %rax
	movl	%edx, (%rax)
	.loc 1 59 25
	leaq	lock(%rip), %rax
	movq	%rax, %rcx
	call	pthread_mutex_unlock
	.loc 1 47 29
	addl	$1, -4(%rbp)
.L2:
	.loc 1 47 9 discriminator 1
	cmpl	$9999999, -4(%rbp)
	jle	.L3
	.loc 1 62 9
	movl	$2, %ecx
	movq	__imp___acrt_iob_func(%rip), %rax
	call	*%rax
.LVL1:
	movq	%rax, %r9
	movl	$26, %r8d
	movl	$1, %edx
	leaq	.LC1(%rip), %rcx
	call	fwrite
	.loc 1 64 16
	movl	$0, %eax
	.loc 1 65 1
	addq	$48, %rsp
	popq	%rbp
	.cfi_restore 6
	.cfi_def_cfa 7, 8
	ret
	.cfi_endproc
.LFE17:
	.seh_endproc
	.section .rdata,"dr"
	.align 8
.LC2:
	.ascii "About to decrease variable %d times\12\0"
.LC3:
	.ascii "Done decreasing variable.\12\0"
	.text
	.globl	decrease_fn
	.def	decrease_fn;	.scl	2;	.type	32;	.endef
	.seh_proc	decrease_fn
decrease_fn:
.LFB18:
	.loc 1 68 1
	.cfi_startproc
	pushq	%rbp
	.seh_pushreg	%rbp
	.cfi_def_cfa_offset 16
	.cfi_offset 6, -16
	movq	%rsp, %rbp
	.seh_setframe	%rbp, 0
	.cfi_def_cfa_register 6
	subq	$48, %rsp
	.seh_stackalloc	48
	.seh_endprologue
	movq	%rcx, 16(%rbp)
	.loc 1 70 23
	movq	16(%rbp), %rax
	movq	%rax, -16(%rbp)
	.loc 1 72 9
	movl	$2, %ecx
	movq	__imp___acrt_iob_func(%rip), %rax
	call	*%rax
.LVL2:
	movl	$10000000, %r8d
	leaq	.LC2(%rip), %rdx
	movq	%rax, %rcx
	call	fprintf
	.loc 1 73 16
	movl	$0, -4(%rbp)
	.loc 1 73 9
	jmp	.L6
.L7:
	.loc 1 81 25
	leaq	lock(%rip), %rax
	movq	%rax, %rcx
	call	pthread_mutex_lock
	.loc 1 83 28
	movq	-16(%rbp), %rax
	movl	(%rax), %eax
	.loc 1 83 25
	leal	-1(%rax), %edx
	movq	-16(%rbp), %rax
	movl	%edx, (%rax)
	.loc 1 85 25
	leaq	lock(%rip), %rax
	movq	%rax, %rcx
	call	pthread_mutex_unlock
	.loc 1 73 29
	addl	$1, -4(%rbp)
.L6:
	.loc 1 73 9 discriminator 1
	cmpl	$9999999, -4(%rbp)
	jle	.L7
	.loc 1 88 9
	movl	$2, %ecx
	movq	__imp___acrt_iob_func(%rip), %rax
	call	*%rax
.LVL3:
	movq	%rax, %r9
	movl	$26, %r8d
	movl	$1, %edx
	leaq	.LC3(%rip), %rcx
	call	fwrite
	.loc 1 90 16
	movl	$0, %eax
	.loc 1 91 1
	addq	$48, %rsp
	popq	%rbp
	.cfi_restore 6
	.cfi_def_cfa 7, 8
	ret
	.cfi_endproc
.LFE18:
	.seh_endproc
	.def	__main;	.scl	2;	.type	32;	.endef
	.section .rdata,"dr"
.LC4:
	.ascii "\12 mutex init has failed\0"
.LC5:
	.ascii "pthread_create\0"
.LC6:
	.ascii "pthread_join\0"
.LC7:
	.ascii "\0"
.LC8:
	.ascii "NOT \0"
.LC9:
	.ascii "%sOK, val = %d.\12\0"
	.text
	.globl	main
	.def	main;	.scl	2;	.type	32;	.endef
	.seh_proc	main
main:
.LFB19:
	.loc 1 95 1
	.cfi_startproc
	pushq	%rbp
	.seh_pushreg	%rbp
	.cfi_def_cfa_offset 16
	.cfi_offset 6, -16
	movq	%rsp, %rbp
	.seh_setframe	%rbp, 0
	.cfi_def_cfa_register 6
	subq	$64, %rsp
	.seh_stackalloc	64
	.seh_endprologue
	movl	%ecx, 16(%rbp)
	movq	%rdx, 24(%rbp)
	.loc 1 95 1
	call	__main
.LVL4:
	.loc 1 102 13
	movl	$0, -12(%rbp)
	.loc 1 103 13
	movl	$0, %edx
	leaq	lock(%rip), %rax
	movq	%rax, %rcx
	call	pthread_mutex_init
	.loc 1 103 12
	testl	%eax, %eax
	je	.L10
	.loc 1 104 11
	leaq	.LC4(%rip), %rcx
	call	puts
	.loc 1 105 18
	movl	$1, %eax
	jmp	.L18
.L10:
	.loc 1 110 15
	leaq	-12(%rbp), %rdx
	leaq	-24(%rbp), %rax
	movq	%rdx, %r9
	leaq	increase_fn(%rip), %r8
	movl	$0, %edx
	movq	%rax, %rcx
	call	pthread_create
	movl	%eax, -4(%rbp)
	.loc 1 111 12
	cmpl	$0, -4(%rbp)
	je	.L12
	.loc 1 112 17
	movq	__imp__errno(%rip), %rax
	call	*%rax
.LVL5:
	movq	%rax, %rdx
	movl	-4(%rbp), %eax
	movl	%eax, (%rdx)
	leaq	.LC5(%rip), %rcx
	call	perror
	.loc 1 113 17
	movl	$1, %ecx
	call	exit
.L12:
	.loc 1 115 15
	leaq	-12(%rbp), %rdx
	leaq	-32(%rbp), %rax
	movq	%rdx, %r9
	leaq	decrease_fn(%rip), %r8
	movl	$0, %edx
	movq	%rax, %rcx
	call	pthread_create
	movl	%eax, -4(%rbp)
	.loc 1 116 12
	cmpl	$0, -4(%rbp)
	je	.L13
	.loc 1 117 17
	movq	__imp__errno(%rip), %rax
	call	*%rax
.LVL6:
	movq	%rax, %rdx
	movl	-4(%rbp), %eax
	movl	%eax, (%rdx)
	leaq	.LC5(%rip), %rcx
	call	perror
	.loc 1 118 17
	movl	$1, %ecx
	call	exit
.L13:
	.loc 1 124 15
	movq	-24(%rbp), %rax
	movl	$0, %edx
	movq	%rax, %rcx
	call	pthread_join
	movl	%eax, -4(%rbp)
	.loc 1 125 12
	cmpl	$0, -4(%rbp)
	je	.L14
	.loc 1 126 17
	movq	__imp__errno(%rip), %rax
	call	*%rax
.LVL7:
	movq	%rax, %rdx
	movl	-4(%rbp), %eax
	movl	%eax, (%rdx)
	leaq	.LC6(%rip), %rcx
	call	perror
.L14:
	.loc 1 127 15
	movq	-32(%rbp), %rax
	movl	$0, %edx
	movq	%rax, %rcx
	call	pthread_join
	movl	%eax, -4(%rbp)
	.loc 1 128 12
	cmpl	$0, -4(%rbp)
	je	.L15
	.loc 1 129 17
	movq	__imp__errno(%rip), %rax
	call	*%rax
.LVL8:
	movq	%rax, %rdx
	movl	-4(%rbp), %eax
	movl	%eax, (%rdx)
	leaq	.LC6(%rip), %rcx
	call	perror
.L15:
	.loc 1 134 19
	movl	-12(%rbp), %eax
	testl	%eax, %eax
	sete	%al
	.loc 1 134 12
	movzbl	%al, %eax
	movl	%eax, -8(%rbp)
	.loc 1 136 9
	movl	-12(%rbp), %edx
	cmpl	$0, -8(%rbp)
	je	.L16
	.loc 1 136 9 is_stmt 0 discriminator 1
	leaq	.LC7(%rip), %rax
	jmp	.L17
.L16:
	.loc 1 136 9 discriminator 2
	leaq	.LC8(%rip), %rax
.L17:
	.loc 1 136 9 discriminator 4
	movl	%edx, %r8d
	movq	%rax, %rdx
	leaq	.LC9(%rip), %rcx
	call	printf
	.loc 1 138 16 is_stmt 1 discriminator 4
	movl	-8(%rbp), %eax
.L18:
	.loc 1 139 1 discriminator 1
	addq	$64, %rsp
	popq	%rbp
	.cfi_restore 6
	.cfi_def_cfa 7, 8
	ret
	.cfi_endproc
.LFE19:
	.seh_endproc
.Letext0:
	.file 2 "C:/CodeBlocks/MinGW/x86_64-w64-mingw32/include/crtdefs.h"
	.file 3 "C:/CodeBlocks/MinGW/x86_64-w64-mingw32/include/stdlib.h"
	.file 4 "C:/CodeBlocks/MinGW/x86_64-w64-mingw32/include/malloc.h"
	.file 5 "C:/CodeBlocks/MinGW/x86_64-w64-mingw32/include/process.h"
	.file 6 "C:/CodeBlocks/MinGW/x86_64-w64-mingw32/include/getopt.h"
	.file 7 "C:/CodeBlocks/MinGW/x86_64-w64-mingw32/include/pthread.h"
	.file 8 "C:/CodeBlocks/MinGW/x86_64-w64-mingw32/include/errno.h"
	.file 9 "C:/CodeBlocks/MinGW/x86_64-w64-mingw32/include/stdio.h"